target datalayout = "e-m:e-p270:32:32-p271:32:32-p272:64:64-i64:64-i128:128-f80:128-n8:16:32:64-S128"
target triple = "x86_64-unknown-linux-gnu"

%struct.VFIODevice = type { %struct.anon, %struct.anon.0, %struct.anon.1, ptr, ptr, ptr, ptr, ptr, i32, i32, i8, i8, i8, i8, i32, ptr, i32, i32, i32, ptr, ptr, i32, i8, i8 }
%struct.anon = type { ptr, ptr }
%struct.anon.0 = type { ptr, ptr }
%struct.anon.1 = type { ptr, ptr }
%struct.VFIOMigration = type { ptr, ptr, %struct.Notifier, i32, i32, ptr, i64, i64, i64, i64, i8 }
%struct.Notifier = type { ptr, %struct.anon.2 }
%struct.anon.2 = type { ptr, ptr }

; Function Attrs: nounwind sspstrong uwtable
define internal zeroext i1 @vfio_precopy_supported(ptr noundef %vbasedev) #0 {
entry:
  %vbasedev.addr = alloca ptr, align 8
  %migration = alloca ptr, align 8
  store ptr %vbasedev, ptr %vbasedev.addr, align 8
  %0 = load ptr, ptr %vbasedev.addr, align 8
  %migration1 = getelementptr inbounds %struct.VFIODevice, ptr %0, i32 0, i32 19
  %1 = load ptr, ptr %migration1, align 8
  store ptr %1, ptr %migration, align 8
  %2 = load ptr, ptr %migration, align 8
  %mig_flags = getelementptr inbounds %struct.VFIOMigration, ptr %2, i32 0, i32 7
  %3 = load i64, ptr %mig_flags, align 8
  %and = and i64 %3, 4
  %tobool = icmp ne i64 %and, 0
  ret i1 %tobool
}

; Function Attrs: nounwind sspstrong uwtable
define internal zeroext i1 @vfio_switchover_ack_needed(ptr noundef %opaque) #0 {
entry:
  %opaque.addr = alloca ptr, align 8
  %vbasedev = alloca ptr, align 8
  store ptr %opaque, ptr %opaque.addr, align 8
  %0 = load ptr, ptr %opaque.addr, align 8
  store ptr %0, ptr %vbasedev, align 8
  %1 = load ptr, ptr %vbasedev, align 8
  %call = call zeroext i1 @vfio_precopy_supported(ptr noundef %1)
  ret i1 %call
}