; Function Attrs: mustprogress nofree norecurse nosync nounwind sspstrong willreturn memory(read, inaccessiblemem: none) uwtable
define internal zeroext i1 @vfio_switchover_ack_needed(ptr noundef readonly captures(none) %opaque) #8 {
entry:
  %0 = getelementptr i8, ptr %opaque, i64 128
  %opaque.val = load ptr, ptr %0, align 8
  %1 = getelementptr i8, ptr %opaque.val, i64 64
  %opaque.val.val = load i64, ptr %1, align 8
  %and.i = and i64 %opaque.val.val, 4
  %tobool.i = icmp ne i64 %and.i, 0
  ret i1 %tobool.i
}